(lp1
(lp2
I17
aI0
aI0
aa(lp3
I8
aI0
aI0
aa(lp4
I8
aI0
aI0
aa(lp5
I14
aI0
aI0
aa(lp6
I5
aI0
aI0
aa(lp7
I5
aI0
aI0
aa(lp8
I8
aI0
aI0
aa(lp9
I6
aI0
aI0
aa(lp10
I15
aI0
aI0
aa(lp11
I18
aI0
aI0
aa(lp12
I12
aI0
aI0
aa(lp13
I12
aI0
aI0
aa(lp14
I17
aI0
aI0
aa(lp15
I7
aI0
aI0
aa(lp16
I7
aI0
aI0
aa(lp17
I22
aI0
aI0
aa(lp18
I12
aI0
aI0
aa(lp19
I15
aI0
aI0
aa(lp20
I13
aI0
aI0
aa(lp21
I18
aI0
aI0
aa(lp22
I32
aI0
aI0
aa(lp23
I6
aI0
aI0
aa(lp24
I5
aI0
aI0
aa(lp25
I13
aI0
aI0
aa(lp26
I5
aI0
aI0
aa(lp27
I6
aI0
aI0
aa(lp28
I16
aI0
aI0
aa(lp29
I14
aI0
aI0
aa(lp30
I11
aI0
aI0
aa(lp31
I16
aI0
aI0
aa(lp32
I11
aI0
aI0
aa(lp33
I30
aI0
aI0
aa(lp34
I12
aI0
aI0
aa(lp35
I9
aI0
aI0
aa(lp36
I10
aI0
aI0
aa(lp37
I14
aI0
aI0
aa(lp38
I6
aI0
aI0
aa(lp39
I10
aI0
aI0
aa(lp40
I21
aI0
aI0
aa(lp41
I12
aI0
aI0
aa(lp42
I12
aI0
aI0
aa(lp43
I13
aI0
aI0
aa(lp44
I11
aI0
aI0
aa(lp45
I4
aI0
aI0
aa(lp46
I7
aI0
aI0
aa(lp47
I13
aI0
aI0
aa(lp48
I7
aI0
aI0
aa(lp49
I6
aI0
aI0
aa(lp50
I8
aI0
aI0
aa(lp51
I10
aI0
aI0
aa(lp52
I12
aI0
aI0
aa(lp53
I19
aI0
aI0
aa(lp54
I9
aI0
aI0
aa(lp55
I16
aI0
aI0
aa(lp56
I15
aI0
aI0
aa(lp57
I9
aI0
aI0
aa(lp58
I10
aI0
aI0
aa(lp59
I13
aI0
aI0
aa(lp60
I12
aI0
aI0
aa(lp61
I14
aI0
aI0
aa(lp62
I8
aI0
aI0
aa(lp63
I11
aI0
aI0
aa(lp64
I15
aI0
aI0
aa(lp65
I17
aI0
aI0
aa(lp66
I7
aI0
aI0
aa(lp67
I7
aI0
aI0
aa(lp68
I10
aI0
aI0
aa(lp69
I10
aI0
aI0
aa(lp70
I14
aI0
aI0
aa(lp71
I11
aI0
aI0
aa(lp72
I9
aI0
aI0
aa(lp73
I12
aI0
aI0
aa(lp74
I18
aI0
aI0
aa(lp75
I8
aI0
aI0
aa(lp76
I17
aI0
aI0
aa(lp77
I11
aI0
aI0
aa(lp78
I9
aI0
aI0
aa(lp79
I28
aI0
aI0
aa(lp80
I9
aI0
aI0
aa(lp81
I11
aI0
aI0
aa(lp82
I14
aI0
aI0
aa(lp83
I8
aI0
aI0
aa(lp84
I10
aI0
aI0
aa(lp85
I79
aI0
aI0
aa(lp86
I23
aI0
aI0
aa(lp87
I13
aI0
aI0
aa(lp88
I24
aI0
aI0
aa(lp89
I12
aI0
aI0
aa(lp90
I6
aI0
aI0
aa(lp91
I7
aI0
aI0
aa(lp92
I8
aI0
aI0
aa(lp93
I13
aI0
aI0
aa(lp94
I24
aI0
aI0
aa(lp95
I8
aI0
aI0
aa.